; Function Attrs: mustprogress uwtable
define noundef i32 @_ZN19colvarproxy_volmaps5resetEv(ptr noundef nonnull align 8 dereferenceable(120) %0) local_unnamed_addr #2 align 2 personality ptr @__gxx_personality_v0 {
  %2 = getelementptr inbounds i8, ptr %0, i64 8
  %3 = getelementptr inbounds i8, ptr %0, i64 16
  %4 = load ptr, ptr %3, align 8
  %5 = load ptr, ptr %2, align 8
  %.not = icmp eq ptr %4, %5
  br i1 %.not, label %_ZNSt6vectorIiSaIiEE5clearEv.exit, label %.lr.ph

.lr.ph:                                           ; preds = %1, %.lr.ph
  %.09 = phi i64 [ %10, %.lr.ph ], [ 0, %1 ]
  %6 = trunc i64 %.09 to i32
  %7 = load ptr, ptr %0, align 8
  %8 = getelementptr inbounds i8, ptr %7, i64 56
  %9 = load ptr, ptr %8, align 8
  tail call void %9(ptr noundef nonnull align 8 dereferenceable(120) %0, i32 noundef %6)
  %10 = add nuw i64 %.09, 1
  %11 = load ptr, ptr %3, align 8
  %12 = load ptr, ptr %2, align 8
  %13 = ptrtoint ptr %11 to i64
  %14 = ptrtoint ptr %12 to i64
  %15 = sub i64 %13, %14
  %16 = ashr exact i64 %15, 2
  %17 = icmp ult i64 %10, %16
  br i1 %17, label %.lr.ph, label %._crit_edge, !llvm.loop !5

._crit_edge:                                      ; preds = %.lr.ph
  %.not.i.i = icmp eq ptr %11, %12
  br i1 %.not.i.i, label %_ZNSt6vectorIiSaIiEE5clearEv.exit, label %18

18:                                               ; preds = %._crit_edge
  store ptr %12, ptr %3, align 8
  br label %_ZNSt6vectorIiSaIiEE5clearEv.exit

_ZNSt6vectorIiSaIiEE5clearEv.exit:                ; preds = %1, %._crit_edge, %18
  %19 = getelementptr inbounds i8, ptr %0, i64 32
  %20 = load ptr, ptr %19, align 8
  %21 = getelementptr inbounds i8, ptr %0, i64 40
  %22 = load ptr, ptr %21, align 8
  %.not.i.i3 = icmp eq ptr %22, %20
  br i1 %.not.i.i3, label %_ZNSt6vectorImSaImEE5clearEv.exit, label %23

23:                                               ; preds = %_ZNSt6vectorIiSaIiEE5clearEv.exit
  store ptr %20, ptr %21, align 8
  br label %_ZNSt6vectorImSaImEE5clearEv.exit

_ZNSt6vectorImSaImEE5clearEv.exit:                ; preds = %_ZNSt6vectorIiSaIiEE5clearEv.exit, %23
  %24 = getelementptr inbounds i8, ptr %0, i64 56
  %25 = load ptr, ptr %24, align 8
  %26 = getelementptr inbounds i8, ptr %0, i64 64
  %27 = load ptr, ptr %26, align 8
  %.not.i.i4 = icmp eq ptr %27, %25
  br i1 %.not.i.i4, label %_ZNSt6vectorIdSaIdEE5clearEv.exit, label %28

28:                                               ; preds = %_ZNSt6vectorImSaImEE5clearEv.exit
  store ptr %25, ptr %26, align 8
  br label %_ZNSt6vectorIdSaIdEE5clearEv.exit

_ZNSt6vectorIdSaIdEE5clearEv.exit:                ; preds = %_ZNSt6vectorImSaImEE5clearEv.exit, %28
  %29 = getelementptr inbounds i8, ptr %0, i64 80
  %30 = load ptr, ptr %29, align 8
  %31 = getelementptr inbounds i8, ptr %0, i64 88
  %32 = load ptr, ptr %31, align 8
  %.not.i.i5 = icmp eq ptr %32, %30
  br i1 %.not.i.i5, label %_ZNSt6vectorIdSaIdEE5clearEv.exit6, label %33

33:                                               ; preds = %_ZNSt6vectorIdSaIdEE5clearEv.exit
  store ptr %30, ptr %31, align 8
  br label %_ZNSt6vectorIdSaIdEE5clearEv.exit6

_ZNSt6vectorIdSaIdEE5clearEv.exit6:               ; preds = %_ZNSt6vectorIdSaIdEE5clearEv.exit, %33
  ret i32 0
}